target datalayout = "e-m:e-p270:32:32-p271:32:32-p272:64:64-i64:64-i128:128-f80:128-n8:16:32:64-S128"
target triple = "x86_64-unknown-linux-gnu"

%"class.proxygen::SimpleController" = type { %"class.proxygen::HTTPSessionController", ptr }
%"class.proxygen::HTTPSessionController" = type { ptr }
%"class.std::__cxx11::basic_string" = type { %"struct.std::__cxx11::basic_string<char>::_Alloc_hider", i64, %union.anon }
%"struct.std::__cxx11::basic_string<char>::_Alloc_hider" = type { ptr }
%union.anon = type { i64, [8 x i8] }
%"class.std::chrono::duration" = type { i64 }
%"class.wangle::Acceptor" = type { %"class.folly::AsyncServerSocket::AcceptCallback", %"class.wangle::ConnectionManager::Callback", %"class.folly::AsyncUDPServerSocket::Callback", ptr, %"struct.wangle::ServerSocketConfig", %"class.std::map", %"class.std::shared_ptr.56", %"class.wangle::SecurityProtocolContextManager", %"class.wangle::TLSPlaintextPeekingCallback", %"class.wangle::DefaultToSSLPeekingCallback", %"class.wangle::DefaultToFizzPeekingCallback", %"class.std::unique_ptr", %"class.std::shared_ptr.75", %"struct.wangle::TLSTicketKeySeeds", %"class.std::shared_ptr.78", i32, i64, i8, %"class.std::chrono::duration", %"class.wangle::Acceptor::AcceptObserverList" }
%"class.folly::AsyncServerSocket::AcceptCallback" = type { ptr }
%"class.wangle::ConnectionManager::Callback" = type { ptr }
%"class.folly::AsyncUDPServerSocket::Callback" = type { ptr }
%"struct.wangle::ServerSocketConfig" = type { %"class.std::__cxx11::basic_string", i32, i32, %"class.std::chrono::duration", %"class.std::chrono::duration", %"class.std::chrono::duration", %"class.folly::SocketAddress", %"struct.wangle::SSLCacheOptions", i8, %"struct.wangle::TLSTicketKeySeeds", %"class.std::vector.6", %"class.std::vector.11", i8, i32, i8, i8, i32, i32, i8, %"struct.wangle::FizzConfig", i8, %"class.std::unordered_map", %"class.std::map" }
%"class.folly::SocketAddress" = type <{ %"union.folly::SocketAddress::AddrStorage", i16, i8, [5 x i8] }>
%"union.folly::SocketAddress::AddrStorage" = type { %"struct.folly::SocketAddress::ExternalUnixAddr", [8 x i8] }
%"struct.folly::SocketAddress::ExternalUnixAddr" = type { ptr, i32 }
%"struct.wangle::SSLCacheOptions" = type { %"class.std::chrono::duration.2", i64, i64, %"class.std::chrono::duration.2" }
%"class.std::chrono::duration.2" = type { i64 }
%"class.std::vector.6" = type { %"struct.std::_Vector_base.7" }
%"struct.std::_Vector_base.7" = type { %"struct.std::_Vector_base<wangle::SSLContextConfig, std::allocator<wangle::SSLContextConfig>>::_Vector_impl" }
%"struct.std::_Vector_base<wangle::SSLContextConfig, std::allocator<wangle::SSLContextConfig>>::_Vector_impl" = type { %"struct.std::_Vector_base<wangle::SSLContextConfig, std::allocator<wangle::SSLContextConfig>>::_Vector_impl_data" }
%"struct.std::_Vector_base<wangle::SSLContextConfig, std::allocator<wangle::SSLContextConfig>>::_Vector_impl_data" = type { ptr, ptr, ptr }
%"class.std::vector.11" = type { %"struct.std::_Vector_base.12" }
%"struct.std::_Vector_base.12" = type { %"struct.std::_Vector_base<wangle::SNIConfig, std::allocator<wangle::SNIConfig>>::_Vector_impl" }
%"struct.std::_Vector_base<wangle::SNIConfig, std::allocator<wangle::SNIConfig>>::_Vector_impl" = type { %"struct.std::_Vector_base<wangle::SNIConfig, std::allocator<wangle::SNIConfig>>::_Vector_impl_data" }
%"struct.std::_Vector_base<wangle::SNIConfig, std::allocator<wangle::SNIConfig>>::_Vector_impl_data" = type { ptr, ptr, ptr }
%"struct.wangle::FizzConfig" = type { i8, %"class.std::vector.16", %"class.std::vector.21", %"class.std::vector.26", %"class.std::vector.31", %"class.std::vector.36", i8, i8, i8, i8, i8, i8, %"class.folly::Optional", %"class.folly::Optional", %"class.std::vector.42", %"struct.fizz::AsyncFizzBase::TransportOptions" }
%"class.std::vector.16" = type { %"struct.std::_Vector_base.17" }
%"struct.std::_Vector_base.17" = type { %"struct.std::_Vector_base<fizz::ProtocolVersion, std::allocator<fizz::ProtocolVersion>>::_Vector_impl" }
%"struct.std::_Vector_base<fizz::ProtocolVersion, std::allocator<fizz::ProtocolVersion>>::_Vector_impl" = type { %"struct.std::_Vector_base<fizz::ProtocolVersion, std::allocator<fizz::ProtocolVersion>>::_Vector_impl_data" }
%"struct.std::_Vector_base<fizz::ProtocolVersion, std::allocator<fizz::ProtocolVersion>>::_Vector_impl_data" = type { ptr, ptr, ptr }
%"class.std::vector.21" = type { %"struct.std::_Vector_base.22" }
%"struct.std::_Vector_base.22" = type { %"struct.std::_Vector_base<std::vector<fizz::CipherSuite>, std::allocator<std::vector<fizz::CipherSuite>>>::_Vector_impl" }
%"struct.std::_Vector_base<std::vector<fizz::CipherSuite>, std::allocator<std::vector<fizz::CipherSuite>>>::_Vector_impl" = type { %"struct.std::_Vector_base<std::vector<fizz::CipherSuite>, std::allocator<std::vector<fizz::CipherSuite>>>::_Vector_impl_data" }
%"struct.std::_Vector_base<std::vector<fizz::CipherSuite>, std::allocator<std::vector<fizz::CipherSuite>>>::_Vector_impl_data" = type { ptr, ptr, ptr }
%"class.std::vector.26" = type { %"struct.std::_Vector_base.27" }
%"struct.std::_Vector_base.27" = type { %"struct.std::_Vector_base<fizz::SignatureScheme, std::allocator<fizz::SignatureScheme>>::_Vector_impl" }
%"struct.std::_Vector_base<fizz::SignatureScheme, std::allocator<fizz::SignatureScheme>>::_Vector_impl" = type { %"struct.std::_Vector_base<fizz::SignatureScheme, std::allocator<fizz::SignatureScheme>>::_Vector_impl_data" }
%"struct.std::_Vector_base<fizz::SignatureScheme, std::allocator<fizz::SignatureScheme>>::_Vector_impl_data" = type { ptr, ptr, ptr }
%"class.std::vector.31" = type { %"struct.std::_Vector_base.32" }
%"struct.std::_Vector_base.32" = type { %"struct.std::_Vector_base<fizz::NamedGroup, std::allocator<fizz::NamedGroup>>::_Vector_impl" }
%"struct.std::_Vector_base<fizz::NamedGroup, std::allocator<fizz::NamedGroup>>::_Vector_impl" = type { %"struct.std::_Vector_base<fizz::NamedGroup, std::allocator<fizz::NamedGroup>>::_Vector_impl_data" }
%"struct.std::_Vector_base<fizz::NamedGroup, std::allocator<fizz::NamedGroup>>::_Vector_impl_data" = type { ptr, ptr, ptr }
%"class.std::vector.36" = type { %"struct.std::_Vector_base.37" }
%"struct.std::_Vector_base.37" = type { %"struct.std::_Vector_base<fizz::PskKeyExchangeMode, std::allocator<fizz::PskKeyExchangeMode>>::_Vector_impl" }
%"struct.std::_Vector_base<fizz::PskKeyExchangeMode, std::allocator<fizz::PskKeyExchangeMode>>::_Vector_impl" = type { %"struct.std::_Vector_base<fizz::PskKeyExchangeMode, std::allocator<fizz::PskKeyExchangeMode>>::_Vector_impl_data" }
%"struct.std::_Vector_base<fizz::PskKeyExchangeMode, std::allocator<fizz::PskKeyExchangeMode>>::_Vector_impl_data" = type { ptr, ptr, ptr }
%"class.folly::Optional" = type { %"struct.folly::Optional<unsigned short>::StorageTriviallyDestructible" }
%"struct.folly::Optional<unsigned short>::StorageTriviallyDestructible" = type <{ %union.anon.41, i8, i8 }>
%union.anon.41 = type { i16 }
%"class.std::vector.42" = type { %"struct.std::_Vector_base.43" }
%"struct.std::_Vector_base.43" = type { %"struct.std::_Vector_base<fizz::CertificateCompressionAlgorithm, std::allocator<fizz::CertificateCompressionAlgorithm>>::_Vector_impl" }
%"struct.std::_Vector_base<fizz::CertificateCompressionAlgorithm, std::allocator<fizz::CertificateCompressionAlgorithm>>::_Vector_impl" = type { %"struct.std::_Vector_base<fizz::CertificateCompressionAlgorithm, std::allocator<fizz::CertificateCompressionAlgorithm>>::_Vector_impl_data" }
%"struct.std::_Vector_base<fizz::CertificateCompressionAlgorithm, std::allocator<fizz::CertificateCompressionAlgorithm>>::_Vector_impl_data" = type { ptr, ptr, ptr }
%"struct.fizz::AsyncFizzBase::TransportOptions" = type { i8, i8, %"class.std::shared_ptr", i64, i64, ptr }
%"class.std::shared_ptr" = type { %"class.std::__shared_ptr" }
%"class.std::__shared_ptr" = type { ptr, %"class.std::__shared_count" }
%"class.std::__shared_count" = type { ptr }
%"class.std::unordered_map" = type { %"class.std::_Hashtable" }
%"class.std::_Hashtable" = type { ptr, i64, %"struct.std::__detail::_Hash_node_base", i64, %"struct.std::__detail::_Prime_rehash_policy", ptr }
%"struct.std::__detail::_Hash_node_base" = type { ptr }
%"struct.std::__detail::_Prime_rehash_policy" = type { float, i64 }
%"class.std::map" = type { %"class.std::_Rb_tree" }
%"class.std::_Rb_tree" = type { %"struct.std::_Rb_tree<folly::SocketOptionKey, std::pair<const folly::SocketOptionKey, int>, std::_Select1st<std::pair<const folly::SocketOptionKey, int>>, std::less<folly::SocketOptionKey>>::_Rb_tree_impl" }
%"struct.std::_Rb_tree<folly::SocketOptionKey, std::pair<const folly::SocketOptionKey, int>, std::_Select1st<std::pair<const folly::SocketOptionKey, int>>, std::less<folly::SocketOptionKey>>::_Rb_tree_impl" = type { %"struct.std::_Rb_tree_key_compare", %"struct.std::_Rb_tree_header" }
%"struct.std::_Rb_tree_key_compare" = type { %"struct.std::less" }
%"struct.std::less" = type { i8 }
%"struct.std::_Rb_tree_header" = type { %"struct.std::_Rb_tree_node_base", i64 }
%"struct.std::_Rb_tree_node_base" = type { i32, ptr, ptr, ptr }
%"class.std::shared_ptr.56" = type { %"class.std::__shared_ptr.57" }
%"class.std::__shared_ptr.57" = type { ptr, %"class.std::__shared_count" }
%"class.wangle::SecurityProtocolContextManager" = type { %"class.std::vector.59", i64 }
%"class.std::vector.59" = type { %"struct.std::_Vector_base.60" }
%"struct.std::_Vector_base.60" = type { %"struct.std::_Vector_base<wangle::PeekingAcceptorHandshakeHelper::PeekCallback *, std::allocator<wangle::PeekingAcceptorHandshakeHelper::PeekCallback *>>::_Vector_impl" }
%"struct.std::_Vector_base<wangle::PeekingAcceptorHandshakeHelper::PeekCallback *, std::allocator<wangle::PeekingAcceptorHandshakeHelper::PeekCallback *>>::_Vector_impl" = type { %"struct.std::_Vector_base<wangle::PeekingAcceptorHandshakeHelper::PeekCallback *, std::allocator<wangle::PeekingAcceptorHandshakeHelper::PeekCallback *>>::_Vector_impl_data" }
%"struct.std::_Vector_base<wangle::PeekingAcceptorHandshakeHelper::PeekCallback *, std::allocator<wangle::PeekingAcceptorHandshakeHelper::PeekCallback *>>::_Vector_impl_data" = type { ptr, ptr, ptr }
%"class.wangle::TLSPlaintextPeekingCallback" = type { %"class.wangle::PeekingAcceptorHandshakeHelper::PeekCallback" }
%"class.wangle::PeekingAcceptorHandshakeHelper::PeekCallback" = type { ptr, i64 }
%"class.wangle::DefaultToSSLPeekingCallback" = type { %"class.wangle::PeekingAcceptorHandshakeHelper::PeekCallback" }
%"class.wangle::DefaultToFizzPeekingCallback" = type { %"class.wangle::PeekingAcceptorHandshakeHelper::PeekCallback", %"class.std::shared_ptr.64", %"class.std::shared_ptr.67", %"class.wangle::FizzHandshakeOptions", %"struct.fizz::AsyncFizzBase::TransportOptions" }
%"class.std::shared_ptr.64" = type { %"class.std::__shared_ptr.65" }
%"class.std::__shared_ptr.65" = type { ptr, %"class.std::__shared_count" }
%"class.std::shared_ptr.67" = type { %"class.std::__shared_ptr.68" }
%"class.std::__shared_ptr.68" = type { ptr, %"class.std::__shared_count" }
%"class.wangle::FizzHandshakeOptions" = type <{ %"class.std::shared_ptr.70", ptr, i8, i8, [6 x i8] }>
%"class.std::shared_ptr.70" = type { %"class.std::__shared_ptr.71" }
%"class.std::__shared_ptr.71" = type { ptr, %"class.std::__shared_count" }
%"class.std::unique_ptr" = type { %"struct.std::__uniq_ptr_data" }
%"struct.std::__uniq_ptr_data" = type { %"class.std::__uniq_ptr_impl" }
%"class.std::__uniq_ptr_impl" = type { %"class.std::tuple" }
%"class.std::tuple" = type { %"struct.std::_Tuple_impl" }
%"struct.std::_Tuple_impl" = type { %"struct.std::_Head_base.74" }
%"struct.std::_Head_base.74" = type { ptr }
%"class.std::shared_ptr.75" = type { %"class.std::__shared_ptr.76" }
%"class.std::__shared_ptr.76" = type { ptr, %"class.std::__shared_count" }
%"struct.wangle::TLSTicketKeySeeds" = type { %"class.std::vector", %"class.std::vector", %"class.std::vector" }
%"class.std::vector" = type { %"struct.std::_Vector_base" }
%"struct.std::_Vector_base" = type { %"struct.std::_Vector_base<std::__cxx11::basic_string<char>, std::allocator<std::__cxx11::basic_string<char>>>::_Vector_impl" }
%"struct.std::_Vector_base<std::__cxx11::basic_string<char>, std::allocator<std::__cxx11::basic_string<char>>>::_Vector_impl" = type { %"struct.std::_Vector_base<std::__cxx11::basic_string<char>, std::allocator<std::__cxx11::basic_string<char>>>::_Vector_impl_data" }
%"struct.std::_Vector_base<std::__cxx11::basic_string<char>, std::allocator<std::__cxx11::basic_string<char>>>::_Vector_impl_data" = type { ptr, ptr, ptr }
%"class.std::shared_ptr.78" = type { %"class.std::__shared_ptr.79" }
%"class.std::__shared_ptr.79" = type { ptr, %"class.std::__shared_count" }
%"class.wangle::Acceptor::AcceptObserverList" = type { ptr, %"class.std::vector.81" }
%"class.std::vector.81" = type { %"struct.std::_Vector_base.82" }
%"struct.std::_Vector_base.82" = type { %"struct.std::_Vector_base<wangle::AcceptObserver *, std::allocator<wangle::AcceptObserver *>>::_Vector_impl" }
%"struct.std::_Vector_base<wangle::AcceptObserver *, std::allocator<wangle::AcceptObserver *>>::_Vector_impl" = type { %"struct.std::_Vector_base<wangle::AcceptObserver *, std::allocator<wangle::AcceptObserver *>>::_Vector_impl_data" }
%"struct.std::_Vector_base<wangle::AcceptObserver *, std::allocator<wangle::AcceptObserver *>>::_Vector_impl_data" = type { ptr, ptr, ptr }

; Function Attrs: mustprogress nounwind uwtable
define linkonce_odr void @_ZNSt6chrono8durationIlSt5ratioILl1ELl1000EEEC2IivEERKT_(ptr noundef nonnull align 8 dereferenceable(8) %this, ptr noundef nonnull align 4 dereferenceable(4) %__rep) unnamed_addr #4 comdat align 2 {
entry:
  %this.addr = alloca ptr, align 8
  %__rep.addr = alloca ptr, align 8
  store ptr %this, ptr %this.addr, align 8
  store ptr %__rep, ptr %__rep.addr, align 8
  %this1 = load ptr, ptr %this.addr, align 8
  %__r = getelementptr inbounds %"class.std::chrono::duration", ptr %this1, i32 0, i32 0
  %0 = load ptr, ptr %__rep.addr, align 8
  %1 = load i32, ptr %0, align 4
  %conv = sext i32 %1 to i64
  store i64 %conv, ptr %__r, align 8
  ret void
}

; Function Attrs: mustprogress nounwind uwtable
define linkonce_odr i64 @_ZNK6wangle8Acceptor26getGracefulShutdownTimeoutEv(ptr noundef nonnull align 8 dereferenceable(1072) %this) #4 comdat align 2 {
entry:
  %retval = alloca %"class.std::chrono::duration", align 8
  %this.addr = alloca ptr, align 8
  store ptr %this, ptr %this.addr, align 8
  %this1 = load ptr, ptr %this.addr, align 8
  %gracefulShutdownTimeout_ = getelementptr inbounds %"class.wangle::Acceptor", ptr %this1, i32 0, i32 18
  call void @llvm.memcpy.p0.p0.i64(ptr align 8 %retval, ptr align 8 %gracefulShutdownTimeout_, i64 8, i1 false)
  %coerce.dive = getelementptr inbounds %"class.std::chrono::duration", ptr %retval, i32 0, i32 0
  %0 = load i64, ptr %coerce.dive, align 8
  ret i64 %0
}

; Function Attrs: mustprogress uwtable
define i64 @_ZNK8proxygen16SimpleController26getGracefulShutdownTimeoutEv(ptr noundef nonnull align 8 dereferenceable(16) %this) unnamed_addr #5 align 2 {
entry:
  %retval = alloca %"class.std::chrono::duration", align 8
  %this.addr = alloca ptr, align 8
  %ref.tmp = alloca i32, align 4
  store ptr %this, ptr %this.addr, align 8
  %this1 = load ptr, ptr %this.addr, align 8
  %acceptor_ = getelementptr inbounds %"class.proxygen::SimpleController", ptr %this1, i32 0, i32 1
  %0 = load ptr, ptr %acceptor_, align 8
  %tobool = icmp ne ptr %0, null
  br i1 %tobool, label %cond.true, label %cond.false

cond.true:                                        ; preds = %entry
  %acceptor_2 = getelementptr inbounds %"class.proxygen::SimpleController", ptr %this1, i32 0, i32 1
  %1 = load ptr, ptr %acceptor_2, align 8
  %call = call i64 @_ZNK6wangle8Acceptor26getGracefulShutdownTimeoutEv(ptr noundef nonnull align 8 dereferenceable(1072) %1)
  %coerce.dive = getelementptr inbounds %"class.std::chrono::duration", ptr %retval, i32 0, i32 0
  store i64 %call, ptr %coerce.dive, align 8
  br label %cond.end

cond.false:                                       ; preds = %entry
  store i32 0, ptr %ref.tmp, align 4
  call void @_ZNSt6chrono8durationIlSt5ratioILl1ELl1000EEEC2IivEERKT_(ptr noundef nonnull align 8 dereferenceable(8) %retval, ptr noundef nonnull align 4 dereferenceable(4) %ref.tmp)
  br label %cond.end

cond.end:                                         ; preds = %cond.false, %cond.true
  %coerce.dive3 = getelementptr inbounds %"class.std::chrono::duration", ptr %retval, i32 0, i32 0
  %2 = load i64, ptr %coerce.dive3, align 8
  ret i64 %2
}