; Function Attrs: mustprogress nofree norecurse nosync nounwind willreturn memory(read, inaccessiblemem: none) uwtable
define i64 @_ZNK8proxygen16SimpleController26getGracefulShutdownTimeoutEv(ptr nocapture noundef nonnull readonly align 8 dereferenceable(16) %this) unnamed_addr #9 align 2 {
entry:
  %acceptor_ = getelementptr inbounds i8, ptr %this, i64 8
  %0 = load ptr, ptr %acceptor_, align 8
  %tobool.not = icmp eq ptr %0, null
  br i1 %tobool.not, label %cond.end, label %cond.true

cond.true:                                        ; preds = %entry
  %gracefulShutdownTimeout_.i = getelementptr inbounds i8, ptr %0, i64 1032
  %retval.sroa.0.0.copyload.i = load i64, ptr %gracefulShutdownTimeout_.i, align 8
  br label %cond.end

cond.end:                                         ; preds = %entry, %cond.true
  %retval.sroa.0.0 = phi i64 [ %retval.sroa.0.0.copyload.i, %cond.true ], [ 0, %entry ]
  ret i64 %retval.sroa.0.0
}